target datalayout = "e-m:e-p270:32:32-p271:32:32-p272:64:64-i64:64-i128:128-f80:128-n8:16:32:64-S128"
target triple = "x86_64-pc-linux-gnu"

@H5D_init_g = external global i8, align 1
@H5_libterm_g = external global i8, align 1
@.str.1 = private unnamed_addr constant [104 x i8] c"generated/home/dtcxzyw/WorkSpace/Projects/compilers/llvm-opt-benchmark/bench/hdf5/hdf5/src/H5Dvirtual.c\00", align 1
@H5E_DATASET_g = external global i64, align 8
@H5E_CANTGET_g = external global i64, align 8
@H5E_CANTREMOVE_g = external global i64, align 8
@H5E_CANTFLUSH_g = external global i64, align 8
@.str.71 = private unnamed_addr constant [33 x i8] c"unable to refresh source dataset\00", align 1
@__func__.H5D__virtual_refresh_source_dset = private unnamed_addr constant [33 x i8] c"H5D__virtual_refresh_source_dset\00", align 1
@H5E_CANTREGISTER_g = external global i64, align 8
@.str.109 = private unnamed_addr constant [45 x i8] c"can't register (temporary) source dataset ID\00", align 1
@.str.110 = private unnamed_addr constant [35 x i8] c"can't unregister source dataset ID\00", align 1
@.str.111 = private unnamed_addr constant [46 x i8] c"can't retrieve library object from VOL object\00", align 1
@H5E_CANTDEC_g = external global i64, align 8
@.str.112 = private unnamed_addr constant [26 x i8] c"unable to free VOL object\00", align 1

; Function Attrs: nounwind uwtable
define internal i32 @H5D__virtual_refresh_source_dset(ptr noundef %0) #0 {
  %2 = alloca ptr, align 8
  %3 = alloca i64, align 8
  %4 = alloca ptr, align 8
  %5 = alloca i32, align 4
  %6 = alloca i8, align 1
  store ptr %0, ptr %2, align 8, !tbaa !203
  call void @llvm.lifetime.start.p0(i64 8, ptr %3) #10
  store i64 -1, ptr %3, align 8, !tbaa !10
  call void @llvm.lifetime.start.p0(i64 8, ptr %4) #10
  store ptr null, ptr %4, align 8, !tbaa !205
  call void @llvm.lifetime.start.p0(i64 4, ptr %5) #10
  store i32 0, ptr %5, align 4, !tbaa !12
  call void @llvm.lifetime.start.p0(i64 1, ptr %6) #10
  store i8 0, ptr %6, align 1, !tbaa !14
  %7 = load i8, ptr @H5D_init_g, align 1, !tbaa !14, !range !16, !noundef !17
  %8 = trunc i8 %7 to i1
  br i1 %8, label %13, label %9

9:                                                ; preds = %1
  %10 = load i8, ptr @H5_libterm_g, align 1, !tbaa !14, !range !16, !noundef !17
  %11 = trunc i8 %10 to i1
  %12 = xor i1 %11, true
  br label %13

13:                                               ; preds = %9, %1
  %14 = phi i1 [ true, %1 ], [ %12, %9 ]
  %15 = xor i1 %14, true
  %16 = xor i1 %15, true
  %17 = zext i1 %16 to i32
  %18 = sext i32 %17 to i64
  %19 = call i64 @llvm.expect.i64(i64 %18, i64 1)
  %20 = icmp ne i64 %19, 0
  br i1 %20, label %21, label %143

21:                                               ; preds = %13
  %22 = load ptr, ptr %2, align 8, !tbaa !203
  %23 = load ptr, ptr %22, align 8, !tbaa !8
  %24 = call i64 @H5VL_wrap_register(i32 noundef 5, ptr noundef %23, i1 noundef zeroext false)
  store i64 %24, ptr %3, align 8, !tbaa !10
  %25 = icmp slt i64 %24, 0
  br i1 %25, label %26, label %45

26:                                               ; preds = %21
  br label %27

27:                                               ; preds = %26
  br label %28

28:                                               ; preds = %27
  br label %29

29:                                               ; preds = %28
  %30 = load i64, ptr @H5E_DATASET_g, align 8, !tbaa !10
  %31 = load i64, ptr @H5E_CANTREGISTER_g, align 8, !tbaa !10
  %32 = call i32 (ptr, ptr, i32, i64, i64, ptr, ...) @H5E_printf_stack(ptr noundef @.str.1, ptr noundef @__func__.H5D__virtual_refresh_source_dset, i32 noundef 3121, i64 noundef %30, i64 noundef %31, ptr noundef @.str.109)
  br label %33

33:                                               ; preds = %29
  br label %34

34:                                               ; preds = %33
  store i8 1, ptr %6, align 1, !tbaa !14
  %35 = load i8, ptr %6, align 1, !tbaa !14, !range !16, !noundef !17
  %36 = trunc i8 %35 to i1
  %37 = zext i1 %36 to i8
  store i8 %37, ptr %6, align 1, !tbaa !14
  br label %38

38:                                               ; preds = %34
  br label %39

39:                                               ; preds = %38
  br label %40

40:                                               ; preds = %39
  store i32 -1, ptr %5, align 4, !tbaa !12
  br label %119

41:                                               ; No predecessors!
  br label %42

42:                                               ; preds = %41
  br label %43

43:                                               ; preds = %42
  br label %44

44:                                               ; preds = %43
  br label %45

45:                                               ; preds = %44, %21
  %46 = load ptr, ptr %2, align 8, !tbaa !203
  %47 = load ptr, ptr %46, align 8, !tbaa !8
  %48 = load i64, ptr %3, align 8, !tbaa !10
  %49 = call i32 @H5D__refresh(ptr noundef %47, i64 noundef %48)
  %50 = icmp slt i32 %49, 0
  br i1 %50, label %51, label %70

51:                                               ; preds = %45
  br label %52

52:                                               ; preds = %51
  br label %53

53:                                               ; preds = %52
  br label %54

54:                                               ; preds = %53
  %55 = load i64, ptr @H5E_DATASET_g, align 8, !tbaa !10
  %56 = load i64, ptr @H5E_CANTFLUSH_g, align 8, !tbaa !10
  %57 = call i32 (ptr, ptr, i32, i64, i64, ptr, ...) @H5E_printf_stack(ptr noundef @.str.1, ptr noundef @__func__.H5D__virtual_refresh_source_dset, i32 noundef 3125, i64 noundef %55, i64 noundef %56, ptr noundef @.str.71)
  br label %58

58:                                               ; preds = %54
  br label %59

59:                                               ; preds = %58
  store i8 1, ptr %6, align 1, !tbaa !14
  %60 = load i8, ptr %6, align 1, !tbaa !14, !range !16, !noundef !17
  %61 = trunc i8 %60 to i1
  %62 = zext i1 %61 to i8
  store i8 %62, ptr %6, align 1, !tbaa !14
  br label %63

63:                                               ; preds = %59
  br label %64

64:                                               ; preds = %63
  br label %65

65:                                               ; preds = %64
  store i32 -1, ptr %5, align 4, !tbaa !12
  br label %119

66:                                               ; No predecessors!
  br label %67

67:                                               ; preds = %66
  br label %68

68:                                               ; preds = %67
  br label %69

69:                                               ; preds = %68
  br label %70

70:                                               ; preds = %69, %45
  %71 = load i64, ptr %3, align 8, !tbaa !10
  %72 = call ptr @H5I_remove(i64 noundef %71)
  store ptr %72, ptr %4, align 8, !tbaa !205
  %73 = icmp eq ptr null, %72
  br i1 %73, label %74, label %93

74:                                               ; preds = %70
  br label %75

75:                                               ; preds = %74
  br label %76

76:                                               ; preds = %75
  br label %77

77:                                               ; preds = %76
  %78 = load i64, ptr @H5E_DATASET_g, align 8, !tbaa !10
  %79 = load i64, ptr @H5E_CANTREMOVE_g, align 8, !tbaa !10
  %80 = call i32 (ptr, ptr, i32, i64, i64, ptr, ...) @H5E_printf_stack(ptr noundef @.str.1, ptr noundef @__func__.H5D__virtual_refresh_source_dset, i32 noundef 3129, i64 noundef %78, i64 noundef %79, ptr noundef @.str.110)
  br label %81

81:                                               ; preds = %77
  br label %82

82:                                               ; preds = %81
  store i8 1, ptr %6, align 1, !tbaa !14
  %83 = load i8, ptr %6, align 1, !tbaa !14, !range !16, !noundef !17
  %84 = trunc i8 %83 to i1
  %85 = zext i1 %84 to i8
  store i8 %85, ptr %6, align 1, !tbaa !14
  br label %86

86:                                               ; preds = %82
  br label %87

87:                                               ; preds = %86
  br label %88

88:                                               ; preds = %87
  store i32 -1, ptr %5, align 4, !tbaa !12
  br label %119

89:                                               ; No predecessors!
  br label %90

90:                                               ; preds = %89
  br label %91

91:                                               ; preds = %90
  br label %92

92:                                               ; preds = %91
  br label %93

93:                                               ; preds = %92, %70
  %94 = load ptr, ptr %4, align 8, !tbaa !205
  %95 = call ptr @H5VL_object_unwrap(ptr noundef %94)
  %96 = load ptr, ptr %2, align 8, !tbaa !203
  store ptr %95, ptr %96, align 8, !tbaa !8
  %97 = icmp eq ptr null, %95
  br i1 %97, label %98, label %117

98:                                               ; preds = %93
  br label %99

99:                                               ; preds = %98
  br label %100

100:                                              ; preds = %99
  br label %101

101:                                              ; preds = %100
  %102 = load i64, ptr @H5E_DATASET_g, align 8, !tbaa !10
  %103 = load i64, ptr @H5E_CANTGET_g, align 8, !tbaa !10
  %104 = call i32 (ptr, ptr, i32, i64, i64, ptr, ...) @H5E_printf_stack(ptr noundef @.str.1, ptr noundef @__func__.H5D__virtual_refresh_source_dset, i32 noundef 3131, i64 noundef %102, i64 noundef %103, ptr noundef @.str.111)
  br label %105

105:                                              ; preds = %101
  br label %106

106:                                              ; preds = %105
  store i8 1, ptr %6, align 1, !tbaa !14
  %107 = load i8, ptr %6, align 1, !tbaa !14, !range !16, !noundef !17
  %108 = trunc i8 %107 to i1
  %109 = zext i1 %108 to i8
  store i8 %109, ptr %6, align 1, !tbaa !14
  br label %110

110:                                              ; preds = %106
  br label %111

111:                                              ; preds = %110
  br label %112

112:                                              ; preds = %111
  store i32 -1, ptr %5, align 4, !tbaa !12
  br label %119

113:                                              ; No predecessors!
  br label %114

114:                                              ; preds = %113
  br label %115

115:                                              ; preds = %114
  br label %116

116:                                              ; preds = %115
  br label %117

117:                                              ; preds = %116, %93
  %118 = load ptr, ptr %4, align 8, !tbaa !205
  call void @H5VL_obj_reset_data(ptr noundef %118)
  br label %119

119:                                              ; preds = %117, %112, %88, %65, %40
  %120 = load ptr, ptr %4, align 8, !tbaa !205
  %121 = icmp ne ptr %120, null
  br i1 %121, label %122, label %142

122:                                              ; preds = %119
  %123 = load ptr, ptr %4, align 8, !tbaa !205
  %124 = call i32 @H5VL_free_object(ptr noundef %123)
  %125 = icmp slt i32 %124, 0
  br i1 %125, label %126, label %142

126:                                              ; preds = %122
  br label %127

127:                                              ; preds = %126
  br label %128

128:                                              ; preds = %127
  br label %129

129:                                              ; preds = %128
  %130 = load i64, ptr @H5E_DATASET_g, align 8, !tbaa !10
  %131 = load i64, ptr @H5E_CANTDEC_g, align 8, !tbaa !10
  %132 = call i32 (ptr, ptr, i32, i64, i64, ptr, ...) @H5E_printf_stack(ptr noundef @.str.1, ptr noundef @__func__.H5D__virtual_refresh_source_dset, i32 noundef 3136, i64 noundef %130, i64 noundef %131, ptr noundef @.str.112)
  br label %133

133:                                              ; preds = %129
  br label %134

134:                                              ; preds = %133
  store i8 1, ptr %6, align 1, !tbaa !14
  %135 = load i8, ptr %6, align 1, !tbaa !14, !range !16, !noundef !17
  %136 = trunc i8 %135 to i1
  %137 = zext i1 %136 to i8
  store i8 %137, ptr %6, align 1, !tbaa !14
  br label %138

138:                                              ; preds = %134
  br label %139

139:                                              ; preds = %138
  store i32 -1, ptr %5, align 4, !tbaa !12
  br label %140

140:                                              ; preds = %139
  br label %141

141:                                              ; preds = %140
  br label %142

142:                                              ; preds = %141, %122, %119
  br label %143

143:                                              ; preds = %142, %13
  %144 = load i32, ptr %5, align 4, !tbaa !12
  call void @llvm.lifetime.end.p0(i64 1, ptr %6) #10
  call void @llvm.lifetime.end.p0(i64 4, ptr %5) #10
  call void @llvm.lifetime.end.p0(i64 8, ptr %4) #10
  call void @llvm.lifetime.end.p0(i64 8, ptr %3) #10
  ret i32 %144
}