; Function Attrs: nounwind uwtable
define internal fastcc range(i32 -1, 1) i32 @H5D__virtual_refresh_source_dset(ptr noundef captures(none) %0) unnamed_addr #0 {
  %2 = load i8, ptr @H5D_init_g, align 1, !tbaa !3, !range !7, !noundef !8
  %3 = trunc nuw i8 %2 to i1
  %4 = load i8, ptr @H5_libterm_g, align 1, !range !7
  %5 = trunc nuw i8 %4 to i1
  %6 = xor i1 %5, true
  %7 = select i1 %3, i1 true, i1 %6
  br i1 %7, label %8, label %.thread, !prof !9

8:                                                ; preds = %1
  %9 = load ptr, ptr %0, align 8, !tbaa !179
  %10 = tail call i64 @H5VL_wrap_register(i32 noundef 5, ptr noundef %9, i1 noundef zeroext false) #14
  %11 = icmp slt i64 %10, 0
  br i1 %11, label %12, label %16

12:                                               ; preds = %8
  %13 = load i64, ptr @H5E_DATASET_g, align 8, !tbaa !24
  %14 = load i64, ptr @H5E_CANTREGISTER_g, align 8, !tbaa !24
  %15 = tail call i32 (ptr, ptr, i32, i64, i64, ptr, ...) @H5E_printf_stack(ptr noundef nonnull @.str.1, ptr noundef nonnull @__func__.H5D__virtual_refresh_source_dset, i32 noundef 3121, i64 noundef %13, i64 noundef %14, ptr noundef nonnull @.str.109) #14
  br label %.thread

16:                                               ; preds = %8
  %17 = load ptr, ptr %0, align 8, !tbaa !179
  %18 = tail call i32 @H5D__refresh(ptr noundef %17, i64 noundef %10) #14
  %19 = icmp slt i32 %18, 0
  br i1 %19, label %20, label %24

20:                                               ; preds = %16
  %21 = load i64, ptr @H5E_DATASET_g, align 8, !tbaa !24
  %22 = load i64, ptr @H5E_CANTFLUSH_g, align 8, !tbaa !24
  %23 = tail call i32 (ptr, ptr, i32, i64, i64, ptr, ...) @H5E_printf_stack(ptr noundef nonnull @.str.1, ptr noundef nonnull @__func__.H5D__virtual_refresh_source_dset, i32 noundef 3125, i64 noundef %21, i64 noundef %22, ptr noundef nonnull @.str.71) #14
  br label %.thread

24:                                               ; preds = %16
  %25 = tail call ptr @H5I_remove(i64 noundef %10) #14
  %26 = icmp eq ptr %25, null
  br i1 %26, label %27, label %31

27:                                               ; preds = %24
  %28 = load i64, ptr @H5E_DATASET_g, align 8, !tbaa !24
  %29 = load i64, ptr @H5E_CANTREMOVE_g, align 8, !tbaa !24
  %30 = tail call i32 (ptr, ptr, i32, i64, i64, ptr, ...) @H5E_printf_stack(ptr noundef nonnull @.str.1, ptr noundef nonnull @__func__.H5D__virtual_refresh_source_dset, i32 noundef 3129, i64 noundef %28, i64 noundef %29, ptr noundef nonnull @.str.110) #14
  br label %.thread

31:                                               ; preds = %24
  %32 = tail call ptr @H5VL_object_unwrap(ptr noundef nonnull %25) #14
  store ptr %32, ptr %0, align 8, !tbaa !179
  %33 = icmp eq ptr %32, null
  br i1 %33, label %34, label %38

34:                                               ; preds = %31
  %35 = load i64, ptr @H5E_DATASET_g, align 8, !tbaa !24
  %36 = load i64, ptr @H5E_CANTGET_g, align 8, !tbaa !24
  %37 = tail call i32 (ptr, ptr, i32, i64, i64, ptr, ...) @H5E_printf_stack(ptr noundef nonnull @.str.1, ptr noundef nonnull @__func__.H5D__virtual_refresh_source_dset, i32 noundef 3131, i64 noundef %35, i64 noundef %36, ptr noundef nonnull @.str.111) #14
  br label %39

38:                                               ; preds = %31
  tail call void @H5VL_obj_reset_data(ptr noundef nonnull %25) #14
  br label %39

39:                                               ; preds = %34, %38
  %.1 = phi i32 [ -1, %34 ], [ 0, %38 ]
  %40 = tail call i32 @H5VL_free_object(ptr noundef nonnull %25) #14
  %41 = icmp slt i32 %40, 0
  br i1 %41, label %42, label %.thread

42:                                               ; preds = %39
  %43 = load i64, ptr @H5E_DATASET_g, align 8, !tbaa !24
  %44 = load i64, ptr @H5E_CANTDEC_g, align 8, !tbaa !24
  %45 = tail call i32 (ptr, ptr, i32, i64, i64, ptr, ...) @H5E_printf_stack(ptr noundef nonnull @.str.1, ptr noundef nonnull @__func__.H5D__virtual_refresh_source_dset, i32 noundef 3136, i64 noundef %43, i64 noundef %44, ptr noundef nonnull @.str.112) #14
  br label %.thread

.thread:                                          ; preds = %27, %20, %12, %39, %42, %1
  %.0 = phi i32 [ -1, %42 ], [ %.1, %39 ], [ 0, %1 ], [ -1, %12 ], [ -1, %20 ], [ -1, %27 ]
  ret i32 %.0
}